target datalayout = "e-m:e-p270:32:32-p271:32:32-p272:64:64-i64:64-i128:128-f80:128-n8:16:32:64-S128"
target triple = "x86_64-pc-linux-gnu"

%struct.bio_method_st = type { i32, ptr, ptr, ptr, ptr, ptr, ptr, ptr, ptr, ptr, ptr, ptr, ptr, ptr }

@.str = private unnamed_addr constant [33 x i8] c"../openssl/crypto/bio/bio_meth.c\00", align 1

; Function Attrs: nounwind uwtable
define void @BIO_meth_free(ptr noundef %0) #0 {
  %2 = alloca ptr, align 8
  store ptr %0, ptr %2, align 8, !tbaa !13
  %3 = load ptr, ptr %2, align 8, !tbaa !13
  %4 = icmp ne ptr %3, null
  br i1 %4, label %5, label %10

5:                                                ; preds = %1
  %6 = load ptr, ptr %2, align 8, !tbaa !13
  %7 = getelementptr inbounds nuw %struct.bio_method_st, ptr %6, i32 0, i32 1
  %8 = load ptr, ptr %7, align 8, !tbaa !15
  call void @CRYPTO_free(ptr noundef %8, ptr noundef @.str, i32 noundef 53)
  %9 = load ptr, ptr %2, align 8, !tbaa !13
  call void @CRYPTO_free(ptr noundef %9, ptr noundef @.str, i32 noundef 54)
  br label %10

10:                                               ; preds = %5, %1
  ret void
}